target datalayout = "e-m:e-p270:32:32-p271:32:32-p272:64:64-i64:64-i128:128-f80:128-n8:16:32:64-S128"
target triple = "x86_64-pc-linux-gnu"

%union.pthread_mutex_t = type { %struct.__pthread_mutex_s }
%struct.__pthread_mutex_s = type { i32, i32, i32, i32, i32, i16, i16, %struct.__pthread_internal_list }
%struct.__pthread_internal_list = type { ptr, ptr }
%struct.slurm_bb_ops = type { ptr, ptr, ptr, ptr, ptr, ptr, ptr, ptr, ptr, ptr, ptr, ptr, ptr, ptr, ptr, ptr, ptr, ptr, ptr, ptr }
%struct.timeval = type { i64, i64 }

@g_context_lock = internal global %union.pthread_mutex_t zeroinitializer, align 8
@.str.1 = private unnamed_addr constant [29 x i8] c"%s: pthread_mutex_lock(): %m\00", align 1
@g_context_cnt = internal global i32 -1, align 4
@ops = internal global ptr null, align 8
@.str.8 = private unnamed_addr constant [31 x i8] c"%s: pthread_mutex_unlock(): %m\00", align 1
@.str.9 = private unnamed_addr constant [27 x i8] c"%s: unexpected NULL script\00", align 1
@__func__.bb_g_build_het_job_script = private unnamed_addr constant [26 x i8] c"bb_g_build_het_job_script\00", align 1

; Function Attrs: nounwind uwtable
define dso_local ptr @bb_g_build_het_job_script(ptr noundef %0, i32 noundef %1) #0 {
  %3 = alloca ptr, align 8
  %4 = alloca ptr, align 8
  %5 = alloca i32, align 4
  %6 = alloca ptr, align 8
  %7 = alloca %struct.timeval, align 8
  %8 = alloca %struct.timeval, align 8
  %9 = alloca [20 x i8], align 16
  %10 = alloca i64, align 8
  %11 = alloca i32, align 4
  %12 = alloca i32, align 4
  %13 = alloca i32, align 4
  store ptr %0, ptr %4, align 8
  store i32 %1, ptr %5, align 4
  call void @llvm.lifetime.start.p0(i64 8, ptr %6) #7
  call void @llvm.lifetime.start.p0(i64 16, ptr %7) #7
  call void @llvm.lifetime.start.p0(i64 16, ptr %8) #7
  call void @llvm.lifetime.start.p0(i64 20, ptr %9) #7
  call void @llvm.memset.p0.i64(ptr align 16 %9, i8 0, i64 20, i1 false)
  call void @llvm.lifetime.start.p0(i64 8, ptr %10) #7
  %14 = load ptr, ptr %4, align 8
  %15 = icmp ne ptr %14, null
  br i1 %15, label %18, label %16

16:                                               ; preds = %2
  %17 = call i32 (ptr, ...) @error(ptr noundef @.str.9, ptr noundef @__func__.bb_g_build_het_job_script)
  store ptr null, ptr %3, align 8
  store i32 1, ptr %11, align 4
  br label %59

18:                                               ; preds = %2
  %19 = load i32, ptr @g_context_cnt, align 4
  %20 = icmp ne i32 %19, 0
  br i1 %20, label %24, label %21

21:                                               ; preds = %18
  %22 = load ptr, ptr %4, align 8
  %23 = call ptr @xstrdup(ptr noundef %22)
  store ptr %23, ptr %3, align 8
  store i32 1, ptr %11, align 4
  br label %59

24:                                               ; preds = %18
  %25 = call i32 @gettimeofday(ptr noundef %7, ptr noundef null) #7
  br label %26

26:                                               ; preds = %24
  call void @llvm.lifetime.start.p0(i64 4, ptr %12) #7
  %27 = call i32 @pthread_mutex_lock(ptr noundef @g_context_lock) #7
  store i32 %27, ptr %12, align 4
  %28 = load i32, ptr %12, align 4
  %29 = icmp ne i32 %28, 0
  br i1 %29, label %30, label %33

30:                                               ; preds = %26
  %31 = load i32, ptr %12, align 4
  %32 = call ptr @__errno_location() #8
  store i32 %31, ptr %32, align 4
  call void (ptr, ...) @fatal_abort(ptr noundef @.str.1, ptr noundef @__func__.bb_g_build_het_job_script) #9
  unreachable

33:                                               ; preds = %26
  call void @llvm.lifetime.end.p0(i64 4, ptr %12) #7
  br label %34

34:                                               ; preds = %33
  br label %35

35:                                               ; preds = %34
  %36 = load ptr, ptr @ops, align 8
  %37 = getelementptr inbounds %struct.slurm_bb_ops, ptr %36, i64 0
  %38 = getelementptr inbounds nuw %struct.slurm_bb_ops, ptr %37, i32 0, i32 0
  %39 = load ptr, ptr %38, align 8
  %40 = load ptr, ptr %4, align 8
  %41 = load i32, ptr %5, align 4
  %42 = call ptr %39(ptr noundef %40, i32 noundef %41)
  store ptr %42, ptr %6, align 8
  br label %43

43:                                               ; preds = %35
  call void @llvm.lifetime.start.p0(i64 4, ptr %13) #7
  %44 = call i32 @pthread_mutex_unlock(ptr noundef @g_context_lock) #7
  store i32 %44, ptr %13, align 4
  %45 = load i32, ptr %13, align 4
  %46 = icmp ne i32 %45, 0
  br i1 %46, label %47, label %50

47:                                               ; preds = %43
  %48 = load i32, ptr %13, align 4
  %49 = call ptr @__errno_location() #8
  store i32 %48, ptr %49, align 4
  call void (ptr, ...) @fatal_abort(ptr noundef @.str.8, ptr noundef @__func__.bb_g_build_het_job_script) #9
  unreachable

50:                                               ; preds = %43
  call void @llvm.lifetime.end.p0(i64 4, ptr %13) #7
  br label %51

51:                                               ; preds = %50
  br label %52

52:                                               ; preds = %51
  br label %53

53:                                               ; preds = %52
  %54 = call i32 @gettimeofday(ptr noundef %8, ptr noundef null) #7
  %55 = getelementptr inbounds [20 x i8], ptr %9, i64 0, i64 0
  call void @slurm_diff_tv_str(ptr noundef %7, ptr noundef %8, ptr noundef %55, i32 noundef 20, ptr noundef @__func__.bb_g_build_het_job_script, i64 noundef 0, ptr noundef %10)
  br label %56

56:                                               ; preds = %53
  br label %57

57:                                               ; preds = %56
  %58 = load ptr, ptr %6, align 8
  store ptr %58, ptr %3, align 8
  store i32 1, ptr %11, align 4
  br label %59

59:                                               ; preds = %57, %21, %16
  call void @llvm.lifetime.end.p0(i64 8, ptr %10) #7
  call void @llvm.lifetime.end.p0(i64 20, ptr %9) #7
  call void @llvm.lifetime.end.p0(i64 16, ptr %8) #7
  call void @llvm.lifetime.end.p0(i64 16, ptr %7) #7
  call void @llvm.lifetime.end.p0(i64 8, ptr %6) #7
  %60 = load ptr, ptr %3, align 8
  ret ptr %60
}