; Function Attrs: nounwind uwtable
define dso_local ptr @bb_g_build_het_job_script(ptr noundef %0, i32 noundef %1) local_unnamed_addr #0 {
  %3 = alloca %struct.timeval, align 8
  %4 = alloca %struct.timeval, align 8
  %5 = alloca [20 x i8], align 16
  %6 = alloca i64, align 8
  call void @llvm.lifetime.start.p0(i64 16, ptr nonnull %3) #11
  call void @llvm.lifetime.start.p0(i64 16, ptr nonnull %4) #11
  call void @llvm.lifetime.start.p0(i64 20, ptr nonnull %5) #11
  call void @llvm.memset.p0.i64(ptr noundef nonnull align 16 dereferenceable(20) %5, i8 0, i64 20, i1 false)
  call void @llvm.lifetime.start.p0(i64 8, ptr nonnull %6) #11
  %.not = icmp eq ptr %0, null
  br i1 %.not, label %7, label %9

7:                                                ; preds = %2
  %8 = tail call i32 (ptr, ...) @error(ptr noundef nonnull @.str.9, ptr noundef nonnull @__func__.bb_g_build_het_job_script) #11
  br label %27

9:                                                ; preds = %2
  %10 = load i32, ptr @g_context_cnt, align 4
  %.not12 = icmp eq i32 %10, 0
  br i1 %.not12, label %11, label %13

11:                                               ; preds = %9
  %12 = tail call ptr @xstrdup(ptr noundef nonnull %0) #11
  br label %27

13:                                               ; preds = %9
  %14 = call i32 @gettimeofday(ptr noundef nonnull %3, ptr noundef null) #11
  %15 = tail call i32 @pthread_mutex_lock(ptr noundef nonnull @g_context_lock) #11
  %.not13 = icmp eq i32 %15, 0
  br i1 %.not13, label %18, label %16

16:                                               ; preds = %13
  %17 = tail call ptr @__errno_location() #12
  store i32 %15, ptr %17, align 4
  tail call void (ptr, ...) @fatal_abort(ptr noundef nonnull @.str.1, ptr noundef nonnull @__func__.bb_g_build_het_job_script) #13
  unreachable

18:                                               ; preds = %13
  %19 = load ptr, ptr @ops, align 8
  %20 = load ptr, ptr %19, align 8
  %21 = tail call ptr %20(ptr noundef nonnull %0, i32 noundef %1) #11
  %22 = tail call i32 @pthread_mutex_unlock(ptr noundef nonnull @g_context_lock) #11
  %.not14 = icmp eq i32 %22, 0
  br i1 %.not14, label %25, label %23

23:                                               ; preds = %18
  %24 = tail call ptr @__errno_location() #12
  store i32 %22, ptr %24, align 4
  tail call void (ptr, ...) @fatal_abort(ptr noundef nonnull @.str.8, ptr noundef nonnull @__func__.bb_g_build_het_job_script) #13
  unreachable

25:                                               ; preds = %18
  %26 = call i32 @gettimeofday(ptr noundef nonnull %4, ptr noundef null) #11
  call void @slurm_diff_tv_str(ptr noundef nonnull %3, ptr noundef nonnull %4, ptr noundef nonnull %5, i32 noundef 20, ptr noundef nonnull @__func__.bb_g_build_het_job_script, i64 noundef 0, ptr noundef nonnull %6) #11
  br label %27

27:                                               ; preds = %25, %11, %7
  %.0 = phi ptr [ %21, %25 ], [ %12, %11 ], [ null, %7 ]
  call void @llvm.lifetime.end.p0(i64 8, ptr nonnull %6) #11
  call void @llvm.lifetime.end.p0(i64 20, ptr nonnull %5) #11
  call void @llvm.lifetime.end.p0(i64 16, ptr nonnull %4) #11
  call void @llvm.lifetime.end.p0(i64 16, ptr nonnull %3) #11
  ret ptr %.0
}